target datalayout = "e-m:e-p270:32:32-p271:32:32-p272:64:64-i64:64-i128:128-f80:128-n8:16:32:64-S128"
target triple = "x86_64-pc-linux-gnu"

%struct.slurmdb_qos_cond_t = type { ptr, i16, ptr, ptr, ptr, i16 }

; Function Attrs: nounwind uwtable
define dso_local void @slurmdb_destroy_qos_cond(ptr noundef %0) #0 {
  %2 = alloca ptr, align 8
  %3 = alloca ptr, align 8
  store ptr %0, ptr %2, align 8
  call void @llvm.lifetime.start.p0(i64 8, ptr %3) #10
  %4 = load ptr, ptr %2, align 8
  store ptr %4, ptr %3, align 8
  %5 = load ptr, ptr %3, align 8
  %6 = icmp ne ptr %5, null
  br i1 %6, label %7, label %36

7:                                                ; preds = %1
  br label %8

8:                                                ; preds = %7
  %9 = load ptr, ptr %3, align 8
  %10 = getelementptr inbounds nuw %struct.slurmdb_qos_cond_t, ptr %9, i32 0, i32 2
  %11 = load ptr, ptr %10, align 8
  %12 = icmp ne ptr %11, null
  br i1 %12, label %13, label %17

13:                                               ; preds = %8
  %14 = load ptr, ptr %3, align 8
  %15 = getelementptr inbounds nuw %struct.slurmdb_qos_cond_t, ptr %14, i32 0, i32 2
  %16 = load ptr, ptr %15, align 8
  call void @list_destroy(ptr noundef %16)
  br label %17

17:                                               ; preds = %13, %8
  %18 = load ptr, ptr %3, align 8
  %19 = getelementptr inbounds nuw %struct.slurmdb_qos_cond_t, ptr %18, i32 0, i32 2
  store ptr null, ptr %19, align 8
  br label %20

20:                                               ; preds = %17
  br label %21

21:                                               ; preds = %20
  br label %22

22:                                               ; preds = %21
  %23 = load ptr, ptr %3, align 8
  %24 = getelementptr inbounds nuw %struct.slurmdb_qos_cond_t, ptr %23, i32 0, i32 4
  %25 = load ptr, ptr %24, align 8
  %26 = icmp ne ptr %25, null
  br i1 %26, label %27, label %31

27:                                               ; preds = %22
  %28 = load ptr, ptr %3, align 8
  %29 = getelementptr inbounds nuw %struct.slurmdb_qos_cond_t, ptr %28, i32 0, i32 4
  %30 = load ptr, ptr %29, align 8
  call void @list_destroy(ptr noundef %30)
  br label %31

31:                                               ; preds = %27, %22
  %32 = load ptr, ptr %3, align 8
  %33 = getelementptr inbounds nuw %struct.slurmdb_qos_cond_t, ptr %32, i32 0, i32 4
  store ptr null, ptr %33, align 8
  br label %34

34:                                               ; preds = %31
  br label %35

35:                                               ; preds = %34
  call void @slurm_xfree(ptr noundef %3)
  br label %36

36:                                               ; preds = %35, %1
  call void @llvm.lifetime.end.p0(i64 8, ptr %3) #10
  ret void
}