; Function Attrs: nounwind uwtable
define dso_local void @slurmdb_destroy_qos_cond(ptr noundef %0) local_unnamed_addr #0 {
  %2 = alloca ptr, align 8
  call void @llvm.lifetime.start.p0(i64 8, ptr nonnull %2) #19
  store ptr %0, ptr %2, align 8
  %.not = icmp eq ptr %0, null
  br i1 %.not, label %12, label %3

3:                                                ; preds = %1
  %4 = getelementptr inbounds nuw i8, ptr %0, i64 16
  %5 = load ptr, ptr %4, align 8
  %.not3 = icmp eq ptr %5, null
  br i1 %.not3, label %7, label %6

6:                                                ; preds = %3
  tail call void @list_destroy(ptr noundef nonnull %5) #19
  br label %7

7:                                                ; preds = %6, %3
  store ptr null, ptr %4, align 8
  %8 = getelementptr inbounds nuw i8, ptr %0, i64 32
  %9 = load ptr, ptr %8, align 8
  %.not4 = icmp eq ptr %9, null
  br i1 %.not4, label %11, label %10

10:                                               ; preds = %7
  tail call void @list_destroy(ptr noundef nonnull %9) #19
  br label %11

11:                                               ; preds = %10, %7
  store ptr null, ptr %8, align 8
  call void @slurm_xfree(ptr noundef nonnull %2) #19
  br label %12

12:                                               ; preds = %11, %1
  call void @llvm.lifetime.end.p0(i64 8, ptr nonnull %2) #19
  ret void
}